target datalayout = "e-m:e-p270:32:32-p271:32:32-p272:64:64-i64:64-i128:128-f80:128-n8:16:32:64-S128"
target triple = "x86_64-pc-linux-gnu"

%union.pthread_mutex_t = type { %struct.__pthread_mutex_s }
%struct.__pthread_mutex_s = type { i32, i32, i32, i32, i32, i16, i16, %struct.__pthread_internal_list }
%struct.__pthread_internal_list = type { ptr, ptr }
%struct.threadpool_list = type { ptr, ptr }

@pools_lock = internal global %union.pthread_mutex_t zeroinitializer, align 8
@pools = internal global ptr null, align 8
@.str.30 = private unnamed_addr constant [34 x i8] c"Unable to add threadpool to list\0A\00", align 1

; Function Attrs: nounwind uwtable
define internal void @add_topools(ptr noundef %0) #0 {
  %2 = alloca ptr, align 8
  %3 = alloca ptr, align 8
  store ptr %0, ptr %2, align 8
  %4 = call noalias ptr @malloc(i64 noundef 16) #11
  store ptr %4, ptr %3, align 8
  %5 = load ptr, ptr %3, align 8
  %6 = icmp ne ptr %5, null
  br i1 %6, label %9, label %7

7:                                                ; preds = %1
  %8 = call i32 (i32, ptr, ...) @logg(i32 noundef 5, ptr noundef @.str.30)
  br label %19

9:                                                ; preds = %1
  %10 = load ptr, ptr %2, align 8
  %11 = load ptr, ptr %3, align 8
  %12 = getelementptr inbounds %struct.threadpool_list, ptr %11, i32 0, i32 0
  store ptr %10, ptr %12, align 8
  %13 = call i32 @pthread_mutex_lock(ptr noundef @pools_lock) #8
  %14 = load ptr, ptr @pools, align 8
  %15 = load ptr, ptr %3, align 8
  %16 = getelementptr inbounds %struct.threadpool_list, ptr %15, i32 0, i32 1
  store ptr %14, ptr %16, align 8
  %17 = load ptr, ptr %3, align 8
  store ptr %17, ptr @pools, align 8
  %18 = call i32 @pthread_mutex_unlock(ptr noundef @pools_lock) #8
  br label %19

19:                                               ; preds = %9, %7
  ret void
}