; Function Attrs: nounwind uwtable
define internal fastcc void @add_topools(ptr noundef %0) unnamed_addr #0 {
  %2 = tail call noalias dereferenceable_or_null(16) ptr @malloc(i64 noundef 16) #15
  %.not = icmp eq ptr %2, null
  br i1 %.not, label %3, label %5

3:                                                ; preds = %1
  %4 = tail call i32 (i32, ptr, ...) @logg(i32 noundef 5, ptr noundef nonnull @.str.30) #12
  br label %10

5:                                                ; preds = %1
  store ptr %0, ptr %2, align 8
  %6 = tail call i32 @pthread_mutex_lock(ptr noundef nonnull @pools_lock) #12
  %7 = load ptr, ptr @pools, align 8
  %8 = getelementptr inbounds i8, ptr %2, i64 8
  store ptr %7, ptr %8, align 8
  store ptr %2, ptr @pools, align 8
  %9 = tail call i32 @pthread_mutex_unlock(ptr noundef nonnull @pools_lock) #12
  br label %10

10:                                               ; preds = %5, %3
  ret void
}